target datalayout = "e-m:e-p270:32:32-p271:32:32-p272:64:64-i64:64-i128:128-f80:128-n8:16:32:64-S128"
target triple = "x86_64-pc-linux-gnu"

%struct.expert_field = type { i32, i32 }

@hf_pn_io_slot_nr = internal global i32 0, align 4
@hf_pn_io_subslot_nr = internal global i32 0, align 4
@hf_pn_io_tsn_number_of_queues = internal global i32 0, align 4
@hf_pn_io_tsn_port_id_block_number_of_entries = internal global i32 0, align 4
@hf_pn_io_tsn_port_capabilities_time_aware = internal global i32 0, align 4
@hf_pn_io_tsn_port_capabilities_preemption = internal global i32 0, align 4
@hf_pn_io_tsn_port_capabilities_queue_masking = internal global i32 0, align 4
@hf_pn_io_tsn_port_capabilities_reserved = internal global i32 0, align 4
@hf_pn_io_tsn_forwarding_group = internal global i32 0, align 4
@hf_pn_io_mau_type = internal global i32 0, align 4
@hf_pn_io_mau_type_extension = internal global i32 0, align 4
@ei_pn_io_block_version = internal global %struct.expert_field zeroinitializer, align 4
@.str.1317 = private unnamed_addr constant [41 x i8] c"Block version %u.%u not implemented yet!\00", align 1

; Function Attrs: nounwind uwtable
define internal i32 @dissect_TSNPortID_block(ptr noundef %0, i32 noundef %1, ptr noundef %2, ptr noundef %3, ptr noundef %4, ptr noundef %5, i8 noundef zeroext %6, i8 noundef zeroext %7) #0 {
  %9 = alloca i32, align 4
  %10 = alloca ptr, align 8
  %11 = alloca i32, align 4
  %12 = alloca ptr, align 8
  %13 = alloca ptr, align 8
  %14 = alloca ptr, align 8
  %15 = alloca ptr, align 8
  %16 = alloca i8, align 1
  %17 = alloca i8, align 1
  %18 = alloca i8, align 1
  %19 = alloca i8, align 1
  %20 = alloca i8, align 1
  %21 = alloca i16, align 2
  %22 = alloca i16, align 2
  %23 = alloca i16, align 2
  %24 = alloca i16, align 2
  %25 = alloca i16, align 2
  store ptr %0, ptr %10, align 8
  store i32 %1, ptr %11, align 4
  store ptr %2, ptr %12, align 8
  store ptr %3, ptr %13, align 8
  store ptr %4, ptr %14, align 8
  store ptr %5, ptr %15, align 8
  store i8 %6, ptr %16, align 1
  store i8 %7, ptr %17, align 1
  %26 = load i8, ptr %16, align 1
  %27 = zext i8 %26 to i32
  %28 = icmp ne i32 %27, 1
  br i1 %28, label %37, label %29

29:                                               ; preds = %8
  %30 = load i8, ptr %17, align 1
  %31 = zext i8 %30 to i32
  %32 = icmp ne i32 %31, 0
  br i1 %32, label %33, label %46

33:                                               ; preds = %29
  %34 = load i8, ptr %17, align 1
  %35 = zext i8 %34 to i32
  %36 = icmp ne i32 %35, 1
  br i1 %36, label %37, label %46

37:                                               ; preds = %33, %8
  %38 = load ptr, ptr %12, align 8
  %39 = load ptr, ptr %14, align 8
  %40 = load i8, ptr %16, align 1
  %41 = zext i8 %40 to i32
  %42 = load i8, ptr %17, align 1
  %43 = zext i8 %42 to i32
  %44 = call ptr (ptr, ptr, ptr, ptr, ...) @expert_add_info_format(ptr noundef %38, ptr noundef %39, ptr noundef @ei_pn_io_block_version, ptr noundef @.str.1317, i32 noundef %41, i32 noundef %43)
  %45 = load i32, ptr %11, align 4
  store i32 %45, ptr %9, align 4
  br label %138

46:                                               ; preds = %33, %29
  %47 = load ptr, ptr %10, align 8
  %48 = load i32, ptr %11, align 4
  %49 = load ptr, ptr %12, align 8
  %50 = load ptr, ptr %13, align 8
  %51 = load ptr, ptr %15, align 8
  %52 = load i32, ptr @hf_pn_io_tsn_port_id_block_number_of_entries, align 4
  %53 = call i32 @dissect_dcerpc_uint16(ptr noundef %47, i32 noundef %48, ptr noundef %49, ptr noundef %50, ptr noundef %51, i32 noundef %52, ptr noundef %21)
  store i32 %53, ptr %11, align 4
  br label %54

54:                                               ; preds = %58, %46
  %55 = load i16, ptr %21, align 2
  %56 = zext i16 %55 to i32
  %57 = icmp sgt i32 %56, 0
  br i1 %57, label %58, label %136

58:                                               ; preds = %54
  %59 = load i16, ptr %21, align 2
  %60 = add i16 %59, -1
  store i16 %60, ptr %21, align 2
  %61 = load ptr, ptr %10, align 8
  %62 = load i32, ptr %11, align 4
  %63 = load ptr, ptr %12, align 8
  %64 = load ptr, ptr %13, align 8
  %65 = load ptr, ptr %15, align 8
  %66 = load i32, ptr @hf_pn_io_slot_nr, align 4
  %67 = call i32 @dissect_dcerpc_uint16(ptr noundef %61, i32 noundef %62, ptr noundef %63, ptr noundef %64, ptr noundef %65, i32 noundef %66, ptr noundef %22)
  store i32 %67, ptr %11, align 4
  %68 = load ptr, ptr %10, align 8
  %69 = load i32, ptr %11, align 4
  %70 = load ptr, ptr %12, align 8
  %71 = load ptr, ptr %13, align 8
  %72 = load ptr, ptr %15, align 8
  %73 = load i32, ptr @hf_pn_io_subslot_nr, align 4
  %74 = call i32 @dissect_dcerpc_uint16(ptr noundef %68, i32 noundef %69, ptr noundef %70, ptr noundef %71, ptr noundef %72, i32 noundef %73, ptr noundef %23)
  store i32 %74, ptr %11, align 4
  %75 = load ptr, ptr %10, align 8
  %76 = load i32, ptr %11, align 4
  %77 = load ptr, ptr %12, align 8
  %78 = load ptr, ptr %13, align 8
  %79 = load ptr, ptr %15, align 8
  %80 = load i32, ptr @hf_pn_io_mau_type, align 4
  %81 = call i32 @dissect_dcerpc_uint16(ptr noundef %75, i32 noundef %76, ptr noundef %77, ptr noundef %78, ptr noundef %79, i32 noundef %80, ptr noundef %24)
  store i32 %81, ptr %11, align 4
  %82 = load ptr, ptr %10, align 8
  %83 = load i32, ptr %11, align 4
  %84 = load ptr, ptr %12, align 8
  %85 = load ptr, ptr %13, align 8
  %86 = load ptr, ptr %15, align 8
  %87 = load i32, ptr @hf_pn_io_mau_type_extension, align 4
  %88 = call i32 @dissect_dcerpc_uint16(ptr noundef %82, i32 noundef %83, ptr noundef %84, ptr noundef %85, ptr noundef %86, i32 noundef %87, ptr noundef %25)
  store i32 %88, ptr %11, align 4
  %89 = load ptr, ptr %10, align 8
  %90 = load i32, ptr %11, align 4
  %91 = load ptr, ptr %12, align 8
  %92 = load ptr, ptr %13, align 8
  %93 = load ptr, ptr %15, align 8
  %94 = load i32, ptr @hf_pn_io_tsn_number_of_queues, align 4
  %95 = call i32 @dissect_dcerpc_uint8(ptr noundef %89, i32 noundef %90, ptr noundef %91, ptr noundef %92, ptr noundef %93, i32 noundef %94, ptr noundef %18)
  store i32 %95, ptr %11, align 4
  %96 = load ptr, ptr %10, align 8
  %97 = load i32, ptr %11, align 4
  %98 = load ptr, ptr %12, align 8
  %99 = load ptr, ptr %13, align 8
  %100 = load ptr, ptr %15, align 8
  %101 = load i32, ptr @hf_pn_io_tsn_port_capabilities_time_aware, align 4
  %102 = call i32 @dissect_dcerpc_uint8(ptr noundef %96, i32 noundef %97, ptr noundef %98, ptr noundef %99, ptr noundef %100, i32 noundef %101, ptr noundef %20)
  %103 = load ptr, ptr %10, align 8
  %104 = load i32, ptr %11, align 4
  %105 = load ptr, ptr %12, align 8
  %106 = load ptr, ptr %13, align 8
  %107 = load ptr, ptr %15, align 8
  %108 = load i32, ptr @hf_pn_io_tsn_port_capabilities_preemption, align 4
  %109 = call i32 @dissect_dcerpc_uint8(ptr noundef %103, i32 noundef %104, ptr noundef %105, ptr noundef %106, ptr noundef %107, i32 noundef %108, ptr noundef %20)
  %110 = load ptr, ptr %10, align 8
  %111 = load i32, ptr %11, align 4
  %112 = load ptr, ptr %12, align 8
  %113 = load ptr, ptr %13, align 8
  %114 = load ptr, ptr %15, align 8
  %115 = load i32, ptr @hf_pn_io_tsn_port_capabilities_queue_masking, align 4
  %116 = call i32 @dissect_dcerpc_uint8(ptr noundef %110, i32 noundef %111, ptr noundef %112, ptr noundef %113, ptr noundef %114, i32 noundef %115, ptr noundef %20)
  %117 = load ptr, ptr %10, align 8
  %118 = load i32, ptr %11, align 4
  %119 = load ptr, ptr %12, align 8
  %120 = load ptr, ptr %13, align 8
  %121 = load ptr, ptr %15, align 8
  %122 = load i32, ptr @hf_pn_io_tsn_port_capabilities_reserved, align 4
  %123 = call i32 @dissect_dcerpc_uint8(ptr noundef %117, i32 noundef %118, ptr noundef %119, ptr noundef %120, ptr noundef %121, i32 noundef %122, ptr noundef %20)
  store i32 %123, ptr %11, align 4
  %124 = load ptr, ptr %10, align 8
  %125 = load i32, ptr %11, align 4
  %126 = load ptr, ptr %12, align 8
  %127 = load ptr, ptr %13, align 8
  %128 = load ptr, ptr %15, align 8
  %129 = load i32, ptr @hf_pn_io_tsn_forwarding_group, align 4
  %130 = call i32 @dissect_dcerpc_uint8(ptr noundef %124, i32 noundef %125, ptr noundef %126, ptr noundef %127, ptr noundef %128, i32 noundef %129, ptr noundef %19)
  store i32 %130, ptr %11, align 4
  %131 = load ptr, ptr %10, align 8
  %132 = load i32, ptr %11, align 4
  %133 = load ptr, ptr %12, align 8
  %134 = load ptr, ptr %13, align 8
  %135 = call i32 @dissect_pn_padding(ptr noundef %131, i32 noundef %132, ptr noundef %133, ptr noundef %134, i32 noundef 1)
  store i32 %135, ptr %11, align 4
  br label %54, !llvm.loop !72

136:                                              ; preds = %54
  %137 = load i32, ptr %11, align 4
  store i32 %137, ptr %9, align 4
  br label %138

138:                                              ; preds = %136, %37
  %139 = load i32, ptr %9, align 4
  ret i32 %139
}