; Function Attrs: nounwind uwtable
define internal fastcc void @dissect_TSNPortID_block(ptr noundef %0, i32 noundef %1, ptr noundef %2, ptr noundef %3, ptr noundef %4, ptr noundef %5, i8 noundef zeroext %6, i8 noundef zeroext %7) unnamed_addr #0 {
  %9 = alloca i8, align 1
  %10 = alloca i8, align 1
  %11 = alloca i8, align 1
  %12 = alloca i16, align 2
  %13 = alloca i16, align 2
  %14 = alloca i16, align 2
  %15 = alloca i16, align 2
  %16 = alloca i16, align 2
  %.not = icmp ne i8 %6, 1
  %or.cond = icmp ugt i8 %7, 1
  %or.cond72 = or i1 %.not, %or.cond
  br i1 %or.cond72, label %17, label %21

17:                                               ; preds = %8
  %18 = zext i8 %6 to i32
  %19 = zext i8 %7 to i32
  %20 = tail call ptr (ptr, ptr, ptr, ptr, ...) @expert_add_info_format(ptr noundef %2, ptr noundef %4, ptr noundef nonnull @ei_pn_io_block_version, ptr noundef nonnull @.str.1317, i32 noundef %18, i32 noundef %19) #11
  br label %.loopexit

21:                                               ; preds = %8
  %22 = load i32, ptr @hf_pn_io_tsn_port_id_block_number_of_entries, align 4
  %23 = call i32 @dissect_dcerpc_uint16(ptr noundef %0, i32 noundef %1, ptr noundef %2, ptr noundef %3, ptr noundef %5, i32 noundef %22, ptr noundef nonnull %12) #11
  %24 = load i16, ptr %12, align 2
  %.not7173 = icmp eq i16 %24, 0
  br i1 %.not7173, label %.loopexit, label %.lr.ph

.lr.ph:                                           ; preds = %21, %.lr.ph
  %25 = phi i16 [ %48, %.lr.ph ], [ %24, %21 ]
  %.07074 = phi i32 [ %47, %.lr.ph ], [ %23, %21 ]
  %26 = add i16 %25, -1
  store i16 %26, ptr %12, align 2
  %27 = load i32, ptr @hf_pn_io_slot_nr, align 4
  %28 = call i32 @dissect_dcerpc_uint16(ptr noundef %0, i32 noundef %.07074, ptr noundef %2, ptr noundef %3, ptr noundef %5, i32 noundef %27, ptr noundef nonnull %13) #11
  %29 = load i32, ptr @hf_pn_io_subslot_nr, align 4
  %30 = call i32 @dissect_dcerpc_uint16(ptr noundef %0, i32 noundef %28, ptr noundef %2, ptr noundef %3, ptr noundef %5, i32 noundef %29, ptr noundef nonnull %14) #11
  %31 = load i32, ptr @hf_pn_io_mau_type, align 4
  %32 = call i32 @dissect_dcerpc_uint16(ptr noundef %0, i32 noundef %30, ptr noundef %2, ptr noundef %3, ptr noundef %5, i32 noundef %31, ptr noundef nonnull %15) #11
  %33 = load i32, ptr @hf_pn_io_mau_type_extension, align 4
  %34 = call i32 @dissect_dcerpc_uint16(ptr noundef %0, i32 noundef %32, ptr noundef %2, ptr noundef %3, ptr noundef %5, i32 noundef %33, ptr noundef nonnull %16) #11
  %35 = load i32, ptr @hf_pn_io_tsn_number_of_queues, align 4
  %36 = call i32 @dissect_dcerpc_uint8(ptr noundef %0, i32 noundef %34, ptr noundef %2, ptr noundef %3, ptr noundef %5, i32 noundef %35, ptr noundef nonnull %9) #11
  %37 = load i32, ptr @hf_pn_io_tsn_port_capabilities_time_aware, align 4
  %38 = call i32 @dissect_dcerpc_uint8(ptr noundef %0, i32 noundef %36, ptr noundef %2, ptr noundef %3, ptr noundef %5, i32 noundef %37, ptr noundef nonnull %11) #11
  %39 = load i32, ptr @hf_pn_io_tsn_port_capabilities_preemption, align 4
  %40 = call i32 @dissect_dcerpc_uint8(ptr noundef %0, i32 noundef %36, ptr noundef %2, ptr noundef %3, ptr noundef %5, i32 noundef %39, ptr noundef nonnull %11) #11
  %41 = load i32, ptr @hf_pn_io_tsn_port_capabilities_queue_masking, align 4
  %42 = call i32 @dissect_dcerpc_uint8(ptr noundef %0, i32 noundef %36, ptr noundef %2, ptr noundef %3, ptr noundef %5, i32 noundef %41, ptr noundef nonnull %11) #11
  %43 = load i32, ptr @hf_pn_io_tsn_port_capabilities_reserved, align 4
  %44 = call i32 @dissect_dcerpc_uint8(ptr noundef %0, i32 noundef %36, ptr noundef %2, ptr noundef %3, ptr noundef %5, i32 noundef %43, ptr noundef nonnull %11) #11
  %45 = load i32, ptr @hf_pn_io_tsn_forwarding_group, align 4
  %46 = call i32 @dissect_dcerpc_uint8(ptr noundef %0, i32 noundef %44, ptr noundef %2, ptr noundef %3, ptr noundef %5, i32 noundef %45, ptr noundef nonnull %10) #11
  %47 = call i32 @dissect_pn_padding(ptr noundef %0, i32 noundef %46, ptr noundef %2, ptr noundef %3, i32 noundef 1) #11
  %48 = load i16, ptr %12, align 2
  %.not71 = icmp eq i16 %48, 0
  br i1 %.not71, label %.loopexit, label %.lr.ph, !llvm.loop !80

.loopexit:                                        ; preds = %.lr.ph, %21, %17
  ret void
}